target datalayout = "e-m:e-p270:32:32-p271:32:32-p272:64:64-i64:64-i128:128-f80:128-n8:16:32:64-S128"
target triple = "x86_64-pc-linux-gnu"

; Function Attrs: nounwind uwtable
define void @QuESTAssert(i32 noundef %0, i32 noundef %1, ptr noundef %2) #0 {
  %4 = alloca i32, align 4
  %5 = alloca i32, align 4
  %6 = alloca ptr, align 8
  store i32 %0, ptr %4, align 4, !tbaa !9
  store i32 %1, ptr %5, align 4, !tbaa !9
  store ptr %2, ptr %6, align 8, !tbaa !4
  %7 = load i32, ptr %4, align 4, !tbaa !9
  %8 = icmp ne i32 %7, 0
  br i1 %8, label %15, label %9

9:                                                ; preds = %3
  %10 = load i32, ptr %5, align 4, !tbaa !9
  %11 = zext i32 %10 to i64
  %12 = getelementptr inbounds nuw [92 x ptr], ptr @errorMessages, i64 0, i64 %11
  %13 = load ptr, ptr %12, align 8, !tbaa !4
  %14 = load ptr, ptr %6, align 8, !tbaa !4
  call void @invalidQuESTInputError(ptr noundef %13, ptr noundef %14)
  br label %15

15:                                               ; preds = %9, %3
  ret void
}

; Function Attrs: nounwind uwtable
define void @validateProb(double noundef %0, ptr noundef %1) #0 {
  %3 = alloca double, align 8
  %4 = alloca ptr, align 8
  store double %0, ptr %3, align 8, !tbaa !15
  store ptr %1, ptr %4, align 8, !tbaa !4
  %5 = load double, ptr %3, align 8, !tbaa !15
  %6 = fcmp oge double %5, 0.000000e+00
  br i1 %6, label %7, label %10

7:                                                ; preds = %2
  %8 = load double, ptr %3, align 8, !tbaa !15
  %9 = fcmp ole double %8, 1.000000e+00
  br label %10

10:                                               ; preds = %7, %2
  %11 = phi i1 [ false, %2 ], [ %9, %7 ]
  %12 = zext i1 %11 to i32
  %13 = load ptr, ptr %4, align 8, !tbaa !4
  call void @QuESTAssert(i32 noundef %12, i32 noundef 36, ptr noundef %13)
  ret void
}

; Function Attrs: nounwind uwtable
define void @validateOneQubitPauliProbs(double noundef %0, double noundef %1, double noundef %2, ptr noundef %3) #0 {
  %5 = alloca double, align 8
  %6 = alloca double, align 8
  %7 = alloca double, align 8
  %8 = alloca ptr, align 8
  %9 = alloca double, align 8
  store double %0, ptr %5, align 8, !tbaa !15
  store double %1, ptr %6, align 8, !tbaa !15
  store double %2, ptr %7, align 8, !tbaa !15
  store ptr %3, ptr %8, align 8, !tbaa !4
  %10 = load double, ptr %5, align 8, !tbaa !15
  %11 = load ptr, ptr %8, align 8, !tbaa !4
  call void @validateProb(double noundef %10, ptr noundef %11)
  %12 = load double, ptr %6, align 8, !tbaa !15
  %13 = load ptr, ptr %8, align 8, !tbaa !4
  call void @validateProb(double noundef %12, ptr noundef %13)
  %14 = load double, ptr %7, align 8, !tbaa !15
  %15 = load ptr, ptr %8, align 8, !tbaa !4
  call void @validateProb(double noundef %14, ptr noundef %15)
  call void @llvm.lifetime.start.p0(i64 8, ptr %9) #7
  %16 = load double, ptr %5, align 8, !tbaa !15
  %17 = fsub double 1.000000e+00, %16
  %18 = load double, ptr %6, align 8, !tbaa !15
  %19 = fsub double %17, %18
  %20 = load double, ptr %7, align 8, !tbaa !15
  %21 = fsub double %19, %20
  store double %21, ptr %9, align 8, !tbaa !15
  %22 = load double, ptr %5, align 8, !tbaa !15
  %23 = load double, ptr %9, align 8, !tbaa !15
  %24 = fcmp ole double %22, %23
  %25 = zext i1 %24 to i32
  %26 = load ptr, ptr %8, align 8, !tbaa !4
  call void @QuESTAssert(i32 noundef %25, i32 noundef 42, ptr noundef %26)
  %27 = load double, ptr %6, align 8, !tbaa !15
  %28 = load double, ptr %9, align 8, !tbaa !15
  %29 = fcmp ole double %27, %28
  %30 = zext i1 %29 to i32
  %31 = load ptr, ptr %8, align 8, !tbaa !4
  call void @QuESTAssert(i32 noundef %30, i32 noundef 42, ptr noundef %31)
  %32 = load double, ptr %7, align 8, !tbaa !15
  %33 = load double, ptr %9, align 8, !tbaa !15
  %34 = fcmp ole double %32, %33
  %35 = zext i1 %34 to i32
  %36 = load ptr, ptr %8, align 8, !tbaa !4
  call void @QuESTAssert(i32 noundef %35, i32 noundef 42, ptr noundef %36)
  call void @llvm.lifetime.end.p0(i64 8, ptr %9) #7
  ret void
}