; Function Attrs: nounwind uwtable
define void @validateOneQubitPauliProbs(double noundef %0, double noundef %1, double noundef %2, ptr noundef %3) local_unnamed_addr #3 {
  %5 = fcmp ult double %0, 0.000000e+00
  %6 = fcmp ugt double %0, 1.000000e+00
  %.not4.i = or i1 %5, %6
  br i1 %.not4.i, label %7, label %validateProb.exit

7:                                                ; preds = %4
  tail call void @invalidQuESTInputError(ptr noundef nonnull @.str.38, ptr noundef %3)
  br label %validateProb.exit

validateProb.exit:                                ; preds = %4, %7
  %8 = fcmp ult double %1, 0.000000e+00
  %9 = fcmp ugt double %1, 1.000000e+00
  %.not4.i18 = or i1 %8, %9
  br i1 %.not4.i18, label %10, label %validateProb.exit19

10:                                               ; preds = %validateProb.exit
  tail call void @invalidQuESTInputError(ptr noundef nonnull @.str.38, ptr noundef %3)
  br label %validateProb.exit19

validateProb.exit19:                              ; preds = %validateProb.exit, %10
  %11 = fcmp ult double %2, 0.000000e+00
  %12 = fcmp ugt double %2, 1.000000e+00
  %.not4.i20 = or i1 %11, %12
  br i1 %.not4.i20, label %13, label %validateProb.exit21

13:                                               ; preds = %validateProb.exit19
  tail call void @invalidQuESTInputError(ptr noundef nonnull @.str.38, ptr noundef %3)
  br label %validateProb.exit21

validateProb.exit21:                              ; preds = %validateProb.exit19, %13
  %14 = fsub double 1.000000e+00, %0
  %15 = fsub double %14, %1
  %16 = fsub double %15, %2
  %17 = fcmp ugt double %0, %16
  br i1 %17, label %18, label %QuESTAssert.exit

18:                                               ; preds = %validateProb.exit21
  tail call void @invalidQuESTInputError(ptr noundef nonnull @.str.44, ptr noundef %3)
  br label %QuESTAssert.exit

QuESTAssert.exit:                                 ; preds = %validateProb.exit21, %18
  %19 = fcmp ugt double %1, %16
  br i1 %19, label %20, label %QuESTAssert.exit23

20:                                               ; preds = %QuESTAssert.exit
  tail call void @invalidQuESTInputError(ptr noundef nonnull @.str.44, ptr noundef %3)
  br label %QuESTAssert.exit23

QuESTAssert.exit23:                               ; preds = %QuESTAssert.exit, %20
  %21 = fcmp ugt double %2, %16
  br i1 %21, label %22, label %QuESTAssert.exit25

22:                                               ; preds = %QuESTAssert.exit23
  tail call void @invalidQuESTInputError(ptr noundef nonnull @.str.44, ptr noundef %3)
  br label %QuESTAssert.exit25

QuESTAssert.exit25:                               ; preds = %QuESTAssert.exit23, %22
  ret void
}